; Function Attrs: mustprogress uwtable
define void @_ZN6google8protobuf2io19OstreamOutputStreamC2EPSoi(ptr noundef nonnull align 8 dereferenceable(72) %this, ptr noundef %output, i32 noundef %block_size) unnamed_addr #3 align 2 personality ptr @__gxx_personality_v0 {
entry:
  store ptr getelementptr inbounds ({ [10 x ptr] }, ptr @_ZTVN6google8protobuf2io19OstreamOutputStreamE, i64 0, i32 0, i64 2), ptr %this, align 8
  %copying_output_ = getelementptr inbounds i8, ptr %this, i64 8
  tail call void @_ZN6google8protobuf2io19OstreamOutputStream26CopyingOstreamOutputStreamC1EPSo(ptr noundef nonnull align 8 dereferenceable(16) %copying_output_, ptr noundef %output)
  %impl_ = getelementptr inbounds i8, ptr %this, i64 24
  invoke void @_ZN6google8protobuf2io26CopyingOutputStreamAdaptorC1EPNS1_19CopyingOutputStreamEi(ptr noundef nonnull align 8 dereferenceable(48) %impl_, ptr noundef nonnull %copying_output_, i32 noundef %block_size)
          to label %invoke.cont4 unwind label %lpad3

invoke.cont4:                                     ; preds = %entry
  ret void

lpad3:                                            ; preds = %entry
  %0 = landingpad { ptr, i32 }
          cleanup
  tail call void @_ZN6google8protobuf2io19OstreamOutputStream26CopyingOstreamOutputStreamD1Ev(ptr noundef nonnull align 8 dereferenceable(16) %copying_output_) #16
  resume { ptr, i32 } %0
}